; ModuleID = '46/3351.c'
source_filename = "46/3351.c"
target datalayout = "e-m:e-p270:32:32-p271:32:32-p272:64:64-i64:64-f80:128-n8:16:32:64-S128"
target triple = "x86_64-pc-linux-gnu"

@.str = private unnamed_addr constant [6 x i8] c"%d %d\00", align 1
@.str.1 = private unnamed_addr constant [3 x i8] c"%d\00", align 1
@.str.2 = private unnamed_addr constant [4 x i8] c"%d\0A\00", align 1

; Function Attrs: noinline nounwind uwtable
define dso_local i32 @main() #0 {
  %1 = alloca i32, align 4
  %2 = alloca i32, align 4
  %3 = alloca i32, align 4
  %4 = alloca i32, align 4
  %5 = alloca i32, align 4
  %6 = alloca [100 x [100 x i32]], align 16
  %7 = alloca i32, align 4
  %8 = alloca i32, align 4
  %9 = alloca i32, align 4
  store i32 0, i32* %1, align 4
  %10 = call i32 (i8*, ...) @__isoc99_scanf(i8* getelementptr inbounds ([6 x i8], [6 x i8]* @.str, i64 0, i64 0), i32* %2, i32* %3)
  store i32 0, i32* %9, align 4
  store i32 0, i32* %7, align 4
  br label %11

11:                                               ; preds = %32, %0
  %12 = load i32, i32* %7, align 4
  %13 = load i32, i32* %2, align 4
  %14 = icmp slt i32 %12, %13
  br i1 %14, label %15, label %35

15:                                               ; preds = %11
  store i32 0, i32* %8, align 4
  br label %16

16:                                               ; preds = %28, %15
  %17 = load i32, i32* %8, align 4
  %18 = load i32, i32* %3, align 4
  %19 = icmp slt i32 %17, %18
  br i1 %19, label %20, label %31

20:                                               ; preds = %16
  %21 = load i32, i32* %7, align 4
  %22 = sext i32 %21 to i64
  %23 = getelementptr inbounds [100 x [100 x i32]], [100 x [100 x i32]]* %6, i64 0, i64 %22
  %24 = load i32, i32* %8, align 4
  %25 = sext i32 %24 to i64
  %26 = getelementptr inbounds [100 x i32], [100 x i32]* %23, i64 0, i64 %25
  %27 = call i32 (i8*, ...) @__isoc99_scanf(i8* getelementptr inbounds ([3 x i8], [3 x i8]* @.str.1, i64 0, i64 0), i32* %26)
  br label %28

28:                                               ; preds = %20
  %29 = load i32, i32* %8, align 4
  %30 = add nsw i32 %29, 1
  store i32 %30, i32* %8, align 4
  br label %16

31:                                               ; preds = %16
  br label %32

32:                                               ; preds = %31
  %33 = load i32, i32* %7, align 4
  %34 = add nsw i32 %33, 1
  store i32 %34, i32* %7, align 4
  br label %11

35:                                               ; preds = %11
  %36 = load i32, i32* %2, align 4
  %37 = load i32, i32* %3, align 4
  %38 = mul nsw i32 %36, %37
  store i32 %38, i32* %5, align 4
  store i32 0, i32* %7, align 4
  store i32 0, i32* %8, align 4
  store i32 0, i32* %4, align 4
  br label %39

39:                                               ; preds = %157, %35
  %40 = load i32, i32* %9, align 4
  %41 = load i32, i32* %5, align 4
  %42 = icmp slt i32 %40, %41
  br i1 %42, label %43, label %167

43:                                               ; preds = %39
  %44 = load i32, i32* %4, align 4
  %45 = add nsw i32 0, %44
  store i32 %45, i32* %8, align 4
  br label %46

46:                                               ; preds = %59, %43
  %47 = load i32, i32* %8, align 4
  %48 = load i32, i32* %3, align 4
  %49 = icmp slt i32 %47, %48
  br i1 %49, label %50, label %62

50:                                               ; preds = %46
  %51 = load i32, i32* %7, align 4
  %52 = sext i32 %51 to i64
  %53 = getelementptr inbounds [100 x [100 x i32]], [100 x [100 x i32]]* %6, i64 0, i64 %52
  %54 = load i32, i32* %8, align 4
  %55 = sext i32 %54 to i64
  %56 = getelementptr inbounds [100 x i32], [100 x i32]* %53, i64 0, i64 %55
  %57 = load i32, i32* %56, align 4
  %58 = call i32 (i8*, ...) @printf(i8* getelementptr inbounds ([4 x i8], [4 x i8]* @.str.2, i64 0, i64 0), i32 %57)
  br label %59

59:                                               ; preds = %50
  %60 = load i32, i32* %8, align 4
  %61 = add nsw i32 %60, 1
  store i32 %61, i32* %8, align 4
  br label %46

62:                                               ; preds = %46
  %63 = load i32, i32* %3, align 4
  %64 = load i32, i32* %4, align 4
  %65 = sub nsw i32 %63, %64
  %66 = load i32, i32* %9, align 4
  %67 = add nsw i32 %66, %65
  store i32 %67, i32* %9, align 4
  %68 = load i32, i32* %9, align 4
  %69 = load i32, i32* %5, align 4
  %70 = icmp eq i32 %68, %69
  br i1 %70, label %71, label %72

71:                                               ; preds = %62
  br label %167

72:                                               ; preds = %62
  %73 = load i32, i32* %4, align 4
  %74 = add nsw i32 1, %73
  store i32 %74, i32* %7, align 4
  br label %75

75:                                               ; preds = %89, %72
  %76 = load i32, i32* %7, align 4
  %77 = load i32, i32* %2, align 4
  %78 = icmp slt i32 %76, %77
  br i1 %78, label %79, label %92

79:                                               ; preds = %75
  %80 = load i32, i32* %7, align 4
  %81 = sext i32 %80 to i64
  %82 = getelementptr inbounds [100 x [100 x i32]], [100 x [100 x i32]]* %6, i64 0, i64 %81
  %83 = load i32, i32* %8, align 4
  %84 = sub nsw i32 %83, 1
  %85 = sext i32 %84 to i64
  %86 = getelementptr inbounds [100 x i32], [100 x i32]* %82, i64 0, i64 %85
  %87 = load i32, i32* %86, align 4
  %88 = call i32 (i8*, ...) @printf(i8* getelementptr inbounds ([4 x i8], [4 x i8]* @.str.2, i64 0, i64 0), i32 %87)
  br label %89

89:                                               ; preds = %79
  %90 = load i32, i32* %7, align 4
  %91 = add nsw i32 %90, 1
  store i32 %91, i32* %7, align 4
  br label %75

92:                                               ; preds = %75
  %93 = load i32, i32* %2, align 4
  %94 = sub nsw i32 %93, 1
  %95 = load i32, i32* %4, align 4
  %96 = sub nsw i32 %94, %95
  %97 = load i32, i32* %9, align 4
  %98 = add nsw i32 %97, %96
  store i32 %98, i32* %9, align 4
  %99 = load i32, i32* %9, align 4
  %100 = load i32, i32* %5, align 4
  %101 = icmp eq i32 %99, %100
  br i1 %101, label %102, label %103

102:                                              ; preds = %92
  br label %167

103:                                              ; preds = %92
  %104 = load i32, i32* %3, align 4
  %105 = add nsw i32 %104, -1
  store i32 %105, i32* %3, align 4
  %106 = load i32, i32* %3, align 4
  %107 = sub nsw i32 %106, 1
  store i32 %107, i32* %8, align 4
  br label %108

108:                                              ; preds = %122, %103
  %109 = load i32, i32* %8, align 4
  %110 = load i32, i32* %4, align 4
  %111 = icmp sge i32 %109, %110
  br i1 %111, label %112, label %125

112:                                              ; preds = %108
  %113 = load i32, i32* %7, align 4
  %114 = sub nsw i32 %113, 1
  %115 = sext i32 %114 to i64
  %116 = getelementptr inbounds [100 x [100 x i32]], [100 x [100 x i32]]* %6, i64 0, i64 %115
  %117 = load i32, i32* %8, align 4
  %118 = sext i32 %117 to i64
  %119 = getelementptr inbounds [100 x i32], [100 x i32]* %116, i64 0, i64 %118
  %120 = load i32, i32* %119, align 4
  %121 = call i32 (i8*, ...) @printf(i8* getelementptr inbounds ([4 x i8], [4 x i8]* @.str.2, i64 0, i64 0), i32 %120)
  br label %122

122:                                              ; preds = %112
  %123 = load i32, i32* %8, align 4
  %124 = add nsw i32 %123, -1
  store i32 %124, i32* %8, align 4
  br label %108

125:                                              ; preds = %108
  %126 = load i32, i32* %3, align 4
  %127 = load i32, i32* %4, align 4
  %128 = sub nsw i32 %126, %127
  %129 = load i32, i32* %9, align 4
  %130 = add nsw i32 %129, %128
  store i32 %130, i32* %9, align 4
  %131 = load i32, i32* %9, align 4
  %132 = load i32, i32* %5, align 4
  %133 = icmp eq i32 %131, %132
  br i1 %133, label %134, label %135

134:                                              ; preds = %125
  br label %167

135:                                              ; preds = %125
  %136 = load i32, i32* %2, align 4
  %137 = add nsw i32 %136, -1
  store i32 %137, i32* %2, align 4
  %138 = load i32, i32* %2, align 4
  %139 = sub nsw i32 %138, 1
  store i32 %139, i32* %7, align 4
  br label %140

140:                                              ; preds = %154, %135
  %141 = load i32, i32* %7, align 4
  %142 = load i32, i32* %4, align 4
  %143 = icmp sgt i32 %141, %142
  br i1 %143, label %144, label %157

144:                                              ; preds = %140
  %145 = load i32, i32* %7, align 4
  %146 = sext i32 %145 to i64
  %147 = getelementptr inbounds [100 x [100 x i32]], [100 x [100 x i32]]* %6, i64 0, i64 %146
  %148 = load i32, i32* %8, align 4
  %149 = add nsw i32 %148, 1
  %150 = sext i32 %149 to i64
  %151 = getelementptr inbounds [100 x i32], [100 x i32]* %147, i64 0, i64 %150
  %152 = load i32, i32* %151, align 4
  %153 = call i32 (i8*, ...) @printf(i8* getelementptr inbounds ([4 x i8], [4 x i8]* @.str.2, i64 0, i64 0), i32 %152)
  br label %154

154:                                              ; preds = %144
  %155 = load i32, i32* %7, align 4
  %156 = add nsw i32 %155, -1
  store i32 %156, i32* %7, align 4
  br label %140

157:                                              ; preds = %140
  %158 = load i32, i32* %2, align 4
  %159 = sub nsw i32 %158, 1
  %160 = load i32, i32* %4, align 4
  %161 = sub nsw i32 %159, %160
  %162 = load i32, i32* %9, align 4
  %163 = add nsw i32 %162, %161
  store i32 %163, i32* %9, align 4
  %164 = load i32, i32* %4, align 4
  %165 = add nsw i32 %164, 1
  store i32 %165, i32* %4, align 4
  %166 = load i32, i32* %4, align 4
  store i32 %166, i32* %7, align 4
  br label %39

167:                                              ; preds = %134, %102, %71, %39
  %168 = load i32, i32* %1, align 4
  ret i32 %168
}

declare dso_local i32 @__isoc99_scanf(i8*, ...) #1

declare dso_local i32 @printf(i8*, ...) #1


!llvm.module.flags = !{!0}
!llvm.ident = !{!1}

!0 = !{i32 1, !"wchar_size", i32 4}
!1 = !{!"clang version 10.0.0-4ubuntu1 "}
